target datalayout = "e-m:e-p270:32:32-p271:32:32-p272:64:64-i64:64-i128:128-f80:128-n8:16:32:64-S128"
target triple = "x86_64-pc-linux-gnu"

%"class.std::shared_ptr" = type { %"class.std::__shared_ptr" }
%"class.std::__shared_ptr" = type { ptr, %"class.std::__shared_count" }
%"class.std::__shared_count" = type { ptr }
%"class.std::shared_ptr.0" = type { %"class.std::__shared_ptr.1" }
%"class.std::__shared_ptr.1" = type { ptr, %"class.std::__shared_count" }
%"class.std::__cxx11::basic_string" = type { %"struct.std::__cxx11::basic_string<char>::_Alloc_hider", i64, %union.anon }
%"struct.std::__cxx11::basic_string<char>::_Alloc_hider" = type { ptr }
%union.anon = type { i64, [8 x i8] }
%"class.absl::debian2::AlphaNum" = type { %"class.absl::debian2::string_view", [32 x i8] }
%"class.absl::debian2::string_view" = type { ptr, i64 }
%class.anon = type { i8 }
%"class.std::_Sp_counted_base" = type { ptr, i32, i32 }

@_ZTIN10open_spiel4GameE = external constant ptr
@_ZTIN10open_spiel11tensor_game10TensorGameE = external constant ptr
@_ZTIN10open_spiel14NormalFormGameE = linkonce_odr constant { ptr, ptr, ptr } { ptr getelementptr inbounds (ptr, ptr @_ZTVN10__cxxabiv120__si_class_type_infoE, i64 2), ptr @_ZTSN10open_spiel14NormalFormGameE, ptr @_ZTIN10open_spiel11SimMoveGameE }, comdat, align 8
@.str = private unnamed_addr constant [13 x i8] c"Cannot load \00", align 1
@.str.1 = private unnamed_addr constant [19 x i8] c" as a tensor game.\00", align 1
@__libc_single_threaded = external global i8, align 1

; Function Attrs: noreturn nounwind uwtable
define linkonce_odr hidden void @__clang_call_terminate(ptr noundef %0) #12 comdat {
  %2 = call ptr @__cxa_begin_catch(ptr %0) #3
  call void @_ZSt9terminatev() #18
  unreachable
}

; Function Attrs: mustprogress uwtable
define linkonce_odr void @_ZNSt16_Sp_counted_baseILN9__gnu_cxx12_Lock_policyE2EE15_M_add_ref_copyEv(ptr noundef nonnull align 8 dereferenceable(16) %0) #4 comdat align 2 {
  %2 = alloca ptr, align 8
  %3 = alloca i32, align 4
  %4 = alloca i32, align 4
  %5 = alloca i32, align 4
  %6 = alloca ptr, align 8
  %7 = alloca i32, align 4
  %8 = alloca ptr, align 8
  %9 = alloca i32, align 4
  %10 = alloca ptr, align 8
  store ptr %0, ptr %10, align 8
  %11 = load ptr, ptr %10, align 8
  %12 = getelementptr inbounds nuw %"class.std::_Sp_counted_base", ptr %11, i32 0, i32 1
  store ptr %12, ptr %8, align 8
  store i32 1, ptr %9, align 4
  %13 = load i8, ptr @__libc_single_threaded, align 1
  %14 = icmp ne i8 %13, 0
  br i1 %14, label %15, label %22

15:                                               ; preds = %1
  %16 = load ptr, ptr %8, align 8
  %17 = load i32, ptr %9, align 4
  store ptr %16, ptr %6, align 8
  store i32 %17, ptr %7, align 4
  %18 = load i32, ptr %7, align 4
  %19 = load ptr, ptr %6, align 8
  %20 = load i32, ptr %19, align 4
  %21 = add nsw i32 %20, %18
  store i32 %21, ptr %19, align 4
  br label %29

22:                                               ; preds = %1
  %23 = load ptr, ptr %8, align 8
  %24 = load i32, ptr %9, align 4
  store ptr %23, ptr %2, align 8
  store i32 %24, ptr %3, align 4
  %25 = load ptr, ptr %2, align 8
  %26 = load i32, ptr %3, align 4
  store i32 %26, ptr %4, align 4
  %27 = load i32, ptr %4, align 4
  %28 = atomicrmw volatile add ptr %25, i32 %27 acq_rel, align 4
  store i32 %28, ptr %5, align 4
  br label %29

29:                                               ; preds = %22, %15
  ret void
}

; Function Attrs: mustprogress nounwind uwtable
define linkonce_odr void @_ZNSt14__shared_countILN9__gnu_cxx12_Lock_policyE2EEC2ERKS2_(ptr noundef nonnull align 8 dereferenceable(8) %0, ptr noundef nonnull align 8 dereferenceable(8) %1) unnamed_addr #5 comdat align 2 personality ptr @__gxx_personality_v0 {
  %3 = alloca ptr, align 8
  %4 = alloca ptr, align 8
  store ptr %0, ptr %3, align 8
  store ptr %1, ptr %4, align 8
  %5 = load ptr, ptr %3, align 8
  %6 = getelementptr inbounds nuw %"class.std::__shared_count", ptr %5, i32 0, i32 0
  %7 = load ptr, ptr %4, align 8
  %8 = getelementptr inbounds nuw %"class.std::__shared_count", ptr %7, i32 0, i32 0
  %9 = load ptr, ptr %8, align 8
  store ptr %9, ptr %6, align 8
  %10 = getelementptr inbounds nuw %"class.std::__shared_count", ptr %5, i32 0, i32 0
  %11 = load ptr, ptr %10, align 8
  %12 = icmp ne ptr %11, null
  br i1 %12, label %13, label %17

13:                                               ; preds = %2
  %14 = getelementptr inbounds nuw %"class.std::__shared_count", ptr %5, i32 0, i32 0
  %15 = load ptr, ptr %14, align 8
  invoke void @_ZNSt16_Sp_counted_baseILN9__gnu_cxx12_Lock_policyE2EE15_M_add_ref_copyEv(ptr noundef nonnull align 8 dereferenceable(16) %15)
          to label %16 unwind label %18

16:                                               ; preds = %13
  br label %17

17:                                               ; preds = %16, %2
  ret void

18:                                               ; preds = %13
  %19 = landingpad { ptr, i32 }
          catch ptr null
  %20 = extractvalue { ptr, i32 } %19, 0
  call void @__clang_call_terminate(ptr %20) #18
  unreachable
}

; Function Attrs: mustprogress nounwind uwtable
define linkonce_odr void @_ZZN4absl7debian211string_view19CheckLengthInternalEmENKUlvE_clEv(ptr noundef nonnull align 1 dereferenceable(1) %0) #5 comdat align 2 {
  %2 = alloca ptr, align 8
  store ptr %0, ptr %2, align 8
  br label %3

3:                                                ; preds = %1
  call void @llvm.trap()
  unreachable

4:                                                ; No predecessors!
  ret void
}

; Function Attrs: mustprogress nounwind uwtable
define linkonce_odr void @_ZNSt12__shared_ptrIKN10open_spiel11tensor_game10TensorGameELN9__gnu_cxx12_Lock_policyE2EEC2IKNS0_4GameEEERKS_IT_LS5_2EEPS3_(ptr noundef nonnull align 8 dereferenceable(16) %0, ptr noundef nonnull align 8 dereferenceable(16) %1, ptr noundef %2) unnamed_addr #5 comdat align 2 {
  %4 = alloca ptr, align 8
  %5 = alloca ptr, align 8
  %6 = alloca ptr, align 8
  store ptr %0, ptr %4, align 8
  store ptr %1, ptr %5, align 8
  store ptr %2, ptr %6, align 8
  %7 = load ptr, ptr %4, align 8
  %8 = getelementptr inbounds nuw %"class.std::__shared_ptr", ptr %7, i32 0, i32 0
  %9 = load ptr, ptr %6, align 8
  store ptr %9, ptr %8, align 8
  %10 = getelementptr inbounds nuw %"class.std::__shared_ptr", ptr %7, i32 0, i32 1
  %11 = load ptr, ptr %5, align 8
  %12 = getelementptr inbounds nuw %"class.std::__shared_ptr.1", ptr %11, i32 0, i32 1
  call void @_ZNSt14__shared_countILN9__gnu_cxx12_Lock_policyE2EEC2ERKS2_(ptr noundef nonnull align 8 dereferenceable(8) %10, ptr noundef nonnull align 8 dereferenceable(8) %12) #3
  ret void
}

; Function Attrs: mustprogress uwtable
define linkonce_odr noundef i64 @_ZN4absl7debian211string_view19CheckLengthInternalEm(i64 noundef %0) #4 comdat align 2 {
  %2 = alloca i64, align 8
  %3 = alloca %class.anon, align 1
  store i64 %0, ptr %2, align 8
  %4 = load i64, ptr %2, align 8
  %5 = icmp ule i64 %4, 9223372036854775807
  br i1 %5, label %6, label %7

6:                                                ; preds = %1
  br label %8

7:                                                ; preds = %1
  call void @_ZZN4absl7debian211string_view19CheckLengthInternalEmENKUlvE_clEv(ptr noundef nonnull align 1 dereferenceable(1) %3)
  br label %8

8:                                                ; preds = %7, %6
  %9 = load i64, ptr %2, align 8
  ret i64 %9
}

; Function Attrs: mustprogress nounwind uwtable
define linkonce_odr noundef i64 @_ZN4absl7debian211string_view14StrlenInternalEPKc(ptr noundef %0) #5 comdat align 2 {
  %2 = alloca ptr, align 8
  store ptr %0, ptr %2, align 8
  %3 = load ptr, ptr %2, align 8
  %4 = call i64 @strlen(ptr noundef %3) #3
  ret i64 %4
}

; Function Attrs: mustprogress nounwind uwtable
define linkonce_odr void @_ZNSt10shared_ptrIKN10open_spiel11tensor_game10TensorGameEEC2IKNS0_4GameEEERKS_IT_EPS3_(ptr noundef nonnull align 8 dereferenceable(16) %0, ptr noundef nonnull align 8 dereferenceable(16) %1, ptr noundef %2) unnamed_addr #5 comdat align 2 {
  %4 = alloca ptr, align 8
  %5 = alloca ptr, align 8
  %6 = alloca ptr, align 8
  store ptr %0, ptr %4, align 8
  store ptr %1, ptr %5, align 8
  store ptr %2, ptr %6, align 8
  %7 = load ptr, ptr %4, align 8
  %8 = load ptr, ptr %5, align 8
  %9 = load ptr, ptr %6, align 8
  call void @_ZNSt12__shared_ptrIKN10open_spiel11tensor_game10TensorGameELN9__gnu_cxx12_Lock_policyE2EEC2IKNS0_4GameEEERKS_IT_LS5_2EEPS3_(ptr noundef nonnull align 8 dereferenceable(16) %7, ptr noundef nonnull align 8 dereferenceable(16) %8, ptr noundef %9) #3
  ret void
}

; Function Attrs: mustprogress uwtable
define linkonce_odr void @_ZN4absl7debian211string_viewC2EPKc(ptr noundef nonnull align 8 dereferenceable(16) %0, ptr noundef %1) unnamed_addr #4 comdat align 2 {
  %3 = alloca ptr, align 8
  %4 = alloca ptr, align 8
  store ptr %0, ptr %3, align 8
  store ptr %1, ptr %4, align 8
  %5 = load ptr, ptr %3, align 8
  %6 = getelementptr inbounds nuw %"class.absl::debian2::string_view", ptr %5, i32 0, i32 0
  %7 = load ptr, ptr %4, align 8
  store ptr %7, ptr %6, align 8
  %8 = getelementptr inbounds nuw %"class.absl::debian2::string_view", ptr %5, i32 0, i32 1
  %9 = load ptr, ptr %4, align 8
  %10 = icmp ne ptr %9, null
  br i1 %10, label %11, label %15

11:                                               ; preds = %2
  %12 = load ptr, ptr %4, align 8
  %13 = call noundef i64 @_ZN4absl7debian211string_view14StrlenInternalEPKc(ptr noundef %12)
  %14 = call noundef i64 @_ZN4absl7debian211string_view19CheckLengthInternalEm(i64 noundef %13)
  br label %16

15:                                               ; preds = %2
  br label %16

16:                                               ; preds = %15, %11
  %17 = phi i64 [ %14, %11 ], [ 0, %15 ]
  store i64 %17, ptr %8, align 8
  ret void
}

; Function Attrs: mustprogress nounwind uwtable
define linkonce_odr void @_ZSt19static_pointer_castIKN10open_spiel11tensor_game10TensorGameEKNS0_4GameEESt10shared_ptrIT_ERKS6_IT0_E(ptr dead_on_unwind noalias writable sret(%"class.std::shared_ptr") align 8 %0, ptr noundef nonnull align 8 dereferenceable(16) %1) #5 comdat {
  %3 = alloca ptr, align 8
  %4 = alloca ptr, align 8
  store ptr %0, ptr %3, align 8
  store ptr %1, ptr %4, align 8
  %5 = load ptr, ptr %4, align 8
  %6 = load ptr, ptr %4, align 8
  %7 = call noundef ptr @_ZNKSt12__shared_ptrIKN10open_spiel4GameELN9__gnu_cxx12_Lock_policyE2EE3getEv(ptr noundef nonnull align 8 dereferenceable(16) %6) #3
  call void @_ZNSt10shared_ptrIKN10open_spiel11tensor_game10TensorGameEEC2IKNS0_4GameEEERKS_IT_EPS3_(ptr noundef nonnull align 8 dereferenceable(16) %0, ptr noundef nonnull align 8 dereferenceable(16) %5, ptr noundef %7) #3
  ret void
}

; Function Attrs: mustprogress uwtable
define linkonce_odr void @_ZN4absl7debian28AlphaNumC2EPKc(ptr noundef nonnull align 8 dereferenceable(48) %0, ptr noundef %1) unnamed_addr #4 comdat align 2 {
  %3 = alloca ptr, align 8
  %4 = alloca ptr, align 8
  store ptr %0, ptr %3, align 8
  store ptr %1, ptr %4, align 8
  %5 = load ptr, ptr %3, align 8
  %6 = getelementptr inbounds nuw %"class.absl::debian2::AlphaNum", ptr %5, i32 0, i32 0
  %7 = load ptr, ptr %4, align 8
  call void @_ZN4absl7debian211string_viewC2EPKc(ptr noundef nonnull align 8 dereferenceable(16) %6, ptr noundef %7)
  ret void
}

; Function Attrs: mustprogress nounwind uwtable
define linkonce_odr noundef ptr @_ZNKSt12__shared_ptrIKN10open_spiel4GameELN9__gnu_cxx12_Lock_policyE2EE3getEv(ptr noundef nonnull align 8 dereferenceable(16) %0) #5 comdat align 2 {
  %2 = alloca ptr, align 8
  store ptr %0, ptr %2, align 8
  %3 = load ptr, ptr %2, align 8
  %4 = getelementptr inbounds nuw %"class.std::__shared_ptr.1", ptr %3, i32 0, i32 0
  %5 = load ptr, ptr %4, align 8
  ret ptr %5
}

; Function Attrs: mustprogress uwtable
define void @_ZN10open_spiel10algorithms14LoadTensorGameERKNSt7__cxx1112basic_stringIcSt11char_traitsIcESaIcEEE(ptr dead_on_unwind noalias writable sret(%"class.std::shared_ptr") align 8 %0, ptr noundef nonnull align 8 dereferenceable(32) %1) #4 personality ptr @__gxx_personality_v0 {
  %3 = alloca ptr, align 8
  %4 = alloca ptr, align 8
  %5 = alloca %"class.std::shared_ptr.0", align 8
  %6 = alloca ptr, align 8
  %7 = alloca ptr, align 8
  %8 = alloca ptr, align 8
  %9 = alloca i32, align 4
  %10 = alloca i32, align 4
  %11 = alloca %"class.std::__cxx11::basic_string", align 8
  %12 = alloca %"class.absl::debian2::AlphaNum", align 8
  %13 = alloca %"class.absl::debian2::AlphaNum", align 8
  %14 = alloca %"class.absl::debian2::AlphaNum", align 8
  store ptr %0, ptr %3, align 8
  store ptr %1, ptr %4, align 8
  %15 = load ptr, ptr %4, align 8
  call void @_ZN10open_spiel8LoadGameERKNSt7__cxx1112basic_stringIcSt11char_traitsIcESaIcEEE(ptr dead_on_unwind writable sret(%"class.std::shared_ptr.0") align 8 %5, ptr noundef nonnull align 8 dereferenceable(32) %15)
  %16 = call noundef ptr @_ZNKSt12__shared_ptrIKN10open_spiel4GameELN9__gnu_cxx12_Lock_policyE2EE3getEv(ptr noundef nonnull align 8 dereferenceable(16) %5) #3
  %17 = icmp eq ptr %16, null
  br i1 %17, label %20, label %18

18:                                               ; preds = %2
  %19 = call ptr @__dynamic_cast(ptr %16, ptr @_ZTIN10open_spiel4GameE, ptr @_ZTIN10open_spiel11tensor_game10TensorGameE, i64 0) #3
  br label %21

20:                                               ; preds = %2
  br label %21

21:                                               ; preds = %20, %18
  %22 = phi ptr [ %19, %18 ], [ null, %20 ]
  store ptr %22, ptr %6, align 8
  %23 = load ptr, ptr %6, align 8
  %24 = icmp eq ptr %23, null
  br i1 %24, label %25, label %53

25:                                               ; preds = %21
  %26 = call noundef ptr @_ZNKSt12__shared_ptrIKN10open_spiel4GameELN9__gnu_cxx12_Lock_policyE2EE3getEv(ptr noundef nonnull align 8 dereferenceable(16) %5) #3
  %27 = icmp eq ptr %26, null
  br i1 %27, label %30, label %28

28:                                               ; preds = %25
  %29 = call ptr @__dynamic_cast(ptr %26, ptr @_ZTIN10open_spiel4GameE, ptr @_ZTIN10open_spiel14NormalFormGameE, i64 0) #3
  br label %31

30:                                               ; preds = %25
  br label %31

31:                                               ; preds = %30, %28
  %32 = phi ptr [ %29, %28 ], [ null, %30 ]
  store ptr %32, ptr %7, align 8
  %33 = load ptr, ptr %7, align 8
  %34 = icmp ne ptr %33, null
  br i1 %34, label %35, label %42

35:                                               ; preds = %31
  %36 = load ptr, ptr %7, align 8
  invoke void @_ZN10open_spiel10algorithms12AsTensorGameEPKNS_14NormalFormGameE(ptr dead_on_unwind writable sret(%"class.std::shared_ptr") align 8 %0, ptr noundef %36)
          to label %37 unwind label %38

37:                                               ; preds = %35
  store i32 1, ptr %10, align 4
  br label %54

38:                                               ; preds = %46, %45, %43, %42, %35
  %39 = landingpad { ptr, i32 }
          cleanup
  %40 = extractvalue { ptr, i32 } %39, 0
  store ptr %40, ptr %8, align 8
  %41 = extractvalue { ptr, i32 } %39, 1
  store i32 %41, ptr %9, align 4
  br label %55

42:                                               ; preds = %31
  invoke void @_ZN4absl7debian28AlphaNumC2EPKc(ptr noundef nonnull align 8 dereferenceable(48) %12, ptr noundef @.str)
          to label %43 unwind label %38

43:                                               ; preds = %42
  %44 = load ptr, ptr %4, align 8
  invoke void @_ZN4absl7debian28AlphaNumC2ISaIcEEERKNSt7__cxx1112basic_stringIcSt11char_traitsIcET_EE(ptr noundef nonnull align 8 dereferenceable(48) %13, ptr noundef nonnull align 8 dereferenceable(32) %44)
          to label %45 unwind label %38

45:                                               ; preds = %43
  invoke void @_ZN4absl7debian28AlphaNumC2EPKc(ptr noundef nonnull align 8 dereferenceable(48) %14, ptr noundef @.str.1)
          to label %46 unwind label %38

46:                                               ; preds = %45
  invoke void @_ZN4absl7debian26StrCatB5cxx11ERKNS0_8AlphaNumES3_S3_(ptr dead_on_unwind writable sret(%"class.std::__cxx11::basic_string") align 8 %11, ptr noundef nonnull align 8 dereferenceable(48) %12, ptr noundef nonnull align 8 dereferenceable(48) %13, ptr noundef nonnull align 8 dereferenceable(48) %14)
          to label %47 unwind label %38

47:                                               ; preds = %46
  invoke void @_ZN10open_spiel15SpielFatalErrorERKNSt7__cxx1112basic_stringIcSt11char_traitsIcESaIcEEE(ptr noundef nonnull align 8 dereferenceable(32) %11) #15
          to label %48 unwind label %49

48:                                               ; preds = %47
  unreachable

49:                                               ; preds = %47
  %50 = landingpad { ptr, i32 }
          cleanup
  %51 = extractvalue { ptr, i32 } %50, 0
  store ptr %51, ptr %8, align 8
  %52 = extractvalue { ptr, i32 } %50, 1
  store i32 %52, ptr %9, align 4
  call void @_ZNSt7__cxx1112basic_stringIcSt11char_traitsIcESaIcEED1Ev(ptr noundef nonnull align 8 dereferenceable(32) %11) #3
  br label %55

53:                                               ; preds = %21
  call void @_ZSt19static_pointer_castIKN10open_spiel11tensor_game10TensorGameEKNS0_4GameEESt10shared_ptrIT_ERKS6_IT0_E(ptr dead_on_unwind writable sret(%"class.std::shared_ptr") align 8 %0, ptr noundef nonnull align 8 dereferenceable(16) %5) #3
  store i32 1, ptr %10, align 4
  br label %54

54:                                               ; preds = %53, %37
  call void @_ZNSt10shared_ptrIKN10open_spiel4GameEED2Ev(ptr noundef nonnull align 8 dereferenceable(16) %5) #3
  ret void

55:                                               ; preds = %49, %38
  call void @_ZNSt10shared_ptrIKN10open_spiel4GameEED2Ev(ptr noundef nonnull align 8 dereferenceable(16) %5) #3
  br label %56

56:                                               ; preds = %55
  %57 = load ptr, ptr %8, align 8
  %58 = load i32, ptr %9, align 4
  %59 = insertvalue { ptr, i32 } poison, ptr %57, 0
  %60 = insertvalue { ptr, i32 } %59, i32 %58, 1
  resume { ptr, i32 } %60
}