; Function Attrs: mustprogress uwtable
define void @_ZN10open_spiel10algorithms14LoadTensorGameERKNSt7__cxx1112basic_stringIcSt11char_traitsIcESaIcEEE(ptr dead_on_unwind noalias nocapture writable writeonly sret(%"class.std::shared_ptr") align 8 %0, ptr noundef nonnull align 8 dereferenceable(32) %1) local_unnamed_addr #3 personality ptr @__gxx_personality_v0 {
  %3 = alloca %"class.std::shared_ptr.0", align 8
  %4 = alloca %"class.std::__cxx11::basic_string", align 8
  %5 = alloca %"class.absl::debian2::AlphaNum", align 8
  %6 = alloca %"class.absl::debian2::AlphaNum", align 8
  %7 = alloca %"class.absl::debian2::AlphaNum", align 8
  call void @_ZN10open_spiel8LoadGameERKNSt7__cxx1112basic_stringIcSt11char_traitsIcESaIcEEE(ptr dead_on_unwind nonnull writable sret(%"class.std::shared_ptr.0") align 8 %3, ptr noundef nonnull align 8 dereferenceable(32) %1)
  %8 = load ptr, ptr %3, align 8
  %9 = icmp eq ptr %8, null
  br i1 %9, label %.thread, label %10

10:                                               ; preds = %2
  %11 = call ptr @__dynamic_cast(ptr nonnull %8, ptr nonnull @_ZTIN10open_spiel4GameE, ptr nonnull @_ZTIN10open_spiel11tensor_game10TensorGameE, i64 0) #21
  %12 = icmp eq ptr %11, null
  br i1 %12, label %13, label %24

13:                                               ; preds = %10
  %14 = call ptr @__dynamic_cast(ptr nonnull %8, ptr nonnull @_ZTIN10open_spiel4GameE, ptr nonnull @_ZTIN10open_spiel14NormalFormGameE, i64 0) #21
  %.not = icmp eq ptr %14, null
  br i1 %.not, label %.thread, label %15

15:                                               ; preds = %13
  invoke void @_ZN10open_spiel10algorithms12AsTensorGameEPKNS_14NormalFormGameE(ptr dead_on_unwind writable sret(%"class.std::shared_ptr") align 8 %0, ptr noundef nonnull %14)
          to label %_ZSt19static_pointer_castIKN10open_spiel11tensor_game10TensorGameEKNS0_4GameEESt10shared_ptrIT_ERKS6_IT0_E.exit unwind label %16

16:                                               ; preds = %.thread, %15
  %17 = landingpad { ptr, i32 }
          cleanup
  br label %72

.thread:                                          ; preds = %2, %13
  store ptr @.str, ptr %5, align 8
  %18 = getelementptr inbounds nuw i8, ptr %5, i64 8
  store i64 12, ptr %18, align 8
  call void @_ZN4absl7debian28AlphaNumC2ISaIcEEERKNSt7__cxx1112basic_stringIcSt11char_traitsIcET_EE(ptr noundef nonnull align 8 dereferenceable(48) %6, ptr noundef nonnull align 8 dereferenceable(32) %1)
  store ptr @.str.1, ptr %7, align 8
  %19 = getelementptr inbounds nuw i8, ptr %7, i64 8
  store i64 18, ptr %19, align 8
  invoke void @_ZN4absl7debian26StrCatB5cxx11ERKNS0_8AlphaNumES3_S3_(ptr dead_on_unwind nonnull writable sret(%"class.std::__cxx11::basic_string") align 8 %4, ptr noundef nonnull align 8 dereferenceable(48) %5, ptr noundef nonnull align 8 dereferenceable(48) %6, ptr noundef nonnull align 8 dereferenceable(48) %7)
          to label %20 unwind label %16

20:                                               ; preds = %.thread
  invoke void @_ZN10open_spiel15SpielFatalErrorERKNSt7__cxx1112basic_stringIcSt11char_traitsIcESaIcEEE(ptr noundef nonnull align 8 dereferenceable(32) %4) #22
          to label %21 unwind label %22

21:                                               ; preds = %20
  unreachable

22:                                               ; preds = %20
  %23 = landingpad { ptr, i32 }
          cleanup
  call void @_ZNSt7__cxx1112basic_stringIcSt11char_traitsIcESaIcEED1Ev(ptr noundef nonnull align 8 dereferenceable(32) %4) #21
  br label %72

24:                                               ; preds = %10
  call void @llvm.experimental.noalias.scope.decl(metadata !4)
  store ptr %8, ptr %0, align 8, !alias.scope !4
  %25 = getelementptr inbounds nuw i8, ptr %0, i64 8
  %26 = getelementptr inbounds nuw i8, ptr %3, i64 8
  %27 = load ptr, ptr %26, align 8, !noalias !4
  store ptr %27, ptr %25, align 8, !alias.scope !4
  %.not.i.i.i.i = icmp eq ptr %27, null
  br i1 %.not.i.i.i.i, label %_ZSt19static_pointer_castIKN10open_spiel11tensor_game10TensorGameEKNS0_4GameEESt10shared_ptrIT_ERKS6_IT0_E.exit, label %28

28:                                               ; preds = %24
  %29 = getelementptr inbounds nuw i8, ptr %27, i64 8
  %30 = load i8, ptr @__libc_single_threaded, align 1, !noalias !4
  %.not.i.i.i.i.i = icmp eq i8 %30, 0
  br i1 %.not.i.i.i.i.i, label %34, label %31

31:                                               ; preds = %28
  %32 = load i32, ptr %29, align 4, !noalias !4
  %33 = add nsw i32 %32, 1
  store i32 %33, ptr %29, align 4, !noalias !4
  br label %_ZSt19static_pointer_castIKN10open_spiel11tensor_game10TensorGameEKNS0_4GameEESt10shared_ptrIT_ERKS6_IT0_E.exit

34:                                               ; preds = %28
  %35 = atomicrmw volatile add ptr %29, i32 1 acq_rel, align 4, !noalias !4
  br label %_ZSt19static_pointer_castIKN10open_spiel11tensor_game10TensorGameEKNS0_4GameEESt10shared_ptrIT_ERKS6_IT0_E.exit

_ZSt19static_pointer_castIKN10open_spiel11tensor_game10TensorGameEKNS0_4GameEESt10shared_ptrIT_ERKS6_IT0_E.exit: ; preds = %34, %31, %24, %15
  %36 = getelementptr inbounds nuw i8, ptr %3, i64 8
  %37 = load ptr, ptr %36, align 8
  %.not.i.i.i = icmp eq ptr %37, null
  br i1 %.not.i.i.i, label %_ZNSt10shared_ptrIKN10open_spiel4GameEED2Ev.exit, label %38

38:                                               ; preds = %_ZSt19static_pointer_castIKN10open_spiel11tensor_game10TensorGameEKNS0_4GameEESt10shared_ptrIT_ERKS6_IT0_E.exit
  %39 = getelementptr inbounds nuw i8, ptr %37, i64 8
  %40 = load atomic i64, ptr %39 acquire, align 8
  %41 = icmp eq i64 %40, 4294967297
  %42 = trunc i64 %40 to i32
  br i1 %41, label %43, label %48

43:                                               ; preds = %38
  store i32 0, ptr %39, align 8
  %44 = getelementptr inbounds nuw i8, ptr %37, i64 12
  store i32 0, ptr %44, align 4
  %45 = load ptr, ptr %37, align 8
  %46 = getelementptr inbounds i8, ptr %45, i64 16
  %47 = load ptr, ptr %46, align 8
  call void %47(ptr noundef nonnull align 8 dereferenceable(16) %37) #21
  br label %_ZNSt16_Sp_counted_baseILN9__gnu_cxx12_Lock_policyE2EE24_M_release_last_use_coldEv.exit.sink.split.i.i.i.i

48:                                               ; preds = %38
  %49 = load i8, ptr @__libc_single_threaded, align 1
  %.not.i.i.i.i12 = icmp eq i8 %49, 0
  br i1 %.not.i.i.i.i12, label %52, label %50

50:                                               ; preds = %48
  %51 = add nsw i32 %42, -1
  store i32 %51, ptr %39, align 4
  br label %54

52:                                               ; preds = %48
  %53 = atomicrmw volatile add ptr %39, i32 -1 acq_rel, align 4
  br label %54

54:                                               ; preds = %52, %50
  %.0.i.i.i.i = phi i32 [ %42, %50 ], [ %53, %52 ]
  %55 = icmp eq i32 %.0.i.i.i.i, 1
  br i1 %55, label %56, label %_ZNSt10shared_ptrIKN10open_spiel4GameEED2Ev.exit

56:                                               ; preds = %54
  %57 = load ptr, ptr %37, align 8
  %58 = getelementptr inbounds i8, ptr %57, i64 16
  %59 = load ptr, ptr %58, align 8
  call void %59(ptr noundef nonnull align 8 dereferenceable(16) %37) #21
  %60 = getelementptr inbounds nuw i8, ptr %37, i64 12
  %61 = load i8, ptr @__libc_single_threaded, align 1
  %.not.i.i.i.i.i.i = icmp eq i8 %61, 0
  br i1 %.not.i.i.i.i.i.i, label %65, label %62

62:                                               ; preds = %56
  %63 = load i32, ptr %60, align 4
  %64 = add nsw i32 %63, -1
  store i32 %64, ptr %60, align 4
  br label %67

65:                                               ; preds = %56
  %66 = atomicrmw volatile add ptr %60, i32 -1 acq_rel, align 4
  br label %67

67:                                               ; preds = %65, %62
  %.0.i.i.i.i.i.i = phi i32 [ %63, %62 ], [ %66, %65 ]
  %68 = icmp eq i32 %.0.i.i.i.i.i.i, 1
  br i1 %68, label %_ZNSt16_Sp_counted_baseILN9__gnu_cxx12_Lock_policyE2EE24_M_release_last_use_coldEv.exit.sink.split.i.i.i.i, label %_ZNSt10shared_ptrIKN10open_spiel4GameEED2Ev.exit

_ZNSt16_Sp_counted_baseILN9__gnu_cxx12_Lock_policyE2EE24_M_release_last_use_coldEv.exit.sink.split.i.i.i.i: ; preds = %67, %43
  %69 = load ptr, ptr %37, align 8
  %70 = getelementptr inbounds i8, ptr %69, i64 24
  %71 = load ptr, ptr %70, align 8
  call void %71(ptr noundef nonnull align 8 dereferenceable(16) %37) #21
  br label %_ZNSt10shared_ptrIKN10open_spiel4GameEED2Ev.exit

_ZNSt10shared_ptrIKN10open_spiel4GameEED2Ev.exit: ; preds = %_ZSt19static_pointer_castIKN10open_spiel11tensor_game10TensorGameEKNS0_4GameEESt10shared_ptrIT_ERKS6_IT0_E.exit, %54, %67, %_ZNSt16_Sp_counted_baseILN9__gnu_cxx12_Lock_policyE2EE24_M_release_last_use_coldEv.exit.sink.split.i.i.i.i
  ret void

72:                                               ; preds = %22, %16
  %.pn = phi { ptr, i32 } [ %17, %16 ], [ %23, %22 ]
  call void @_ZNSt10shared_ptrIKN10open_spiel4GameEED2Ev(ptr noundef nonnull align 8 dereferenceable(16) %3) #21
  resume { ptr, i32 } %.pn
}